target datalayout = "e-m:e-p270:32:32-p271:32:32-p272:64:64-i64:64-i128:128-f80:128-n8:16:32:64-S128"
target triple = "x86_64-pc-linux-gnu"

%struct.ossl_passphrase_data_st = type { i32, %union.anon, i8, ptr, i64 }
%union.anon = type { %struct.anon }
%struct.anon = type { ptr, i64 }

@.str = private unnamed_addr constant [31 x i8] c"../openssl/crypto/passphrase.c\00", align 1

; Function Attrs: nounwind uwtable
define void @ossl_pw_clear_passphrase_cache(ptr noundef %0) #0 {
  %2 = alloca ptr, align 8
  store ptr %0, ptr %2, align 8, !tbaa !3
  %3 = load ptr, ptr %2, align 8, !tbaa !3
  %4 = getelementptr inbounds nuw %struct.ossl_passphrase_data_st, ptr %3, i32 0, i32 3
  %5 = load ptr, ptr %4, align 8, !tbaa !14
  %6 = load ptr, ptr %2, align 8, !tbaa !3
  %7 = getelementptr inbounds nuw %struct.ossl_passphrase_data_st, ptr %6, i32 0, i32 4
  %8 = load i64, ptr %7, align 8, !tbaa !15
  call void @CRYPTO_clear_free(ptr noundef %5, i64 noundef %8, ptr noundef @.str, i32 noundef 29)
  %9 = load ptr, ptr %2, align 8, !tbaa !3
  %10 = getelementptr inbounds nuw %struct.ossl_passphrase_data_st, ptr %9, i32 0, i32 3
  store ptr null, ptr %10, align 8, !tbaa !14
  ret void
}