; Function Attrs: nounwind uwtable
define void @ossl_pw_clear_passphrase_cache(ptr noundef captures(none) %0) local_unnamed_addr #0 {
  %2 = getelementptr inbounds nuw i8, ptr %0, i64 32
  %3 = load ptr, ptr %2, align 8, !tbaa !12
  %4 = getelementptr inbounds nuw i8, ptr %0, i64 40
  %5 = load i64, ptr %4, align 8, !tbaa !13
  tail call void @CRYPTO_clear_free(ptr noundef %3, i64 noundef %5, ptr noundef nonnull @.str, i32 noundef 29) #7
  store ptr null, ptr %2, align 8, !tbaa !12
  ret void
}